target datalayout = "e-m:e-p270:32:32-p271:32:32-p272:64:64-i64:64-i128:128-f80:128-n8:16:32:64-S128"
target triple = "x86_64-pc-linux-gnu"

%struct.LOCKTAG = type { i32, i32, i32, i16, i8, i8 }
%union.ListCell = type { ptr }

; Function Attrs: nounwind uwtable
define dso_local void @WaitForLockers(i64 %0, i64 %1, i32 noundef %2, i1 noundef zeroext %3) #0 {
  %5 = alloca %struct.LOCKTAG, align 4
  %6 = alloca i32, align 4
  %7 = alloca i8, align 1
  %8 = alloca ptr, align 8
  %9 = alloca %union.ListCell, align 8
  %10 = getelementptr inbounds nuw { i64, i64 }, ptr %5, i32 0, i32 0
  store i64 %0, ptr %10, align 4
  %11 = getelementptr inbounds nuw { i64, i64 }, ptr %5, i32 0, i32 1
  store i64 %1, ptr %11, align 4
  store i32 %2, ptr %6, align 4
  %12 = zext i1 %3 to i8
  store i8 %12, ptr %7, align 1
  call void @llvm.lifetime.start.p0(i64 8, ptr %8) #6
  store ptr %5, ptr %9, align 8
  %13 = getelementptr inbounds nuw %union.ListCell, ptr %9, i32 0, i32 0
  %14 = load ptr, ptr %13, align 8
  %15 = call ptr @list_make1_impl(i32 noundef 1, ptr %14)
  store ptr %15, ptr %8, align 8
  %16 = load ptr, ptr %8, align 8
  %17 = load i32, ptr %6, align 4
  %18 = load i8, ptr %7, align 1, !range !4, !noundef !5
  %19 = trunc i8 %18 to i1
  call void @WaitForLockersMultiple(ptr noundef %16, i32 noundef %17, i1 noundef zeroext %19)
  %20 = load ptr, ptr %8, align 8
  call void @list_free(ptr noundef %20)
  call void @llvm.lifetime.end.p0(i64 8, ptr %8) #6
  ret void
}