; Function Attrs: nounwind uwtable
define dso_local void @WaitForLockers(i64 %0, i64 %1, i32 noundef %2, i1 noundef zeroext %3) local_unnamed_addr #1 {
  %5 = alloca %struct.LOCKTAG, align 8
  store i64 %0, ptr %5, align 8
  %6 = getelementptr inbounds nuw i8, ptr %5, i64 8
  store i64 %1, ptr %6, align 8
  %7 = call ptr @list_make1_impl(i32 noundef 1, ptr nonnull %5) #8
  call void @WaitForLockersMultiple(ptr noundef %7, i32 noundef %2, i1 noundef zeroext %3)
  call void @list_free(ptr noundef %7) #8
  ret void
}